(dp0
S'ensweap'
p1
(lp2
sS'Troops'
p3
(lp4
VMedic
p5
aVAugment Gorilla
p6
asS'Ensign'
p7
(dp8
S'Shoot'
p9
V-1
p10
sS'Shield'
p11
V10
p12
sS'Items'
p13
(lp14
(lp15
VBlade
p16
aa(lp17
VBlade
p18
aVNeedle Gun
p19
aa(lp20
VBlade
p21
aVNeedle Gun
p22
aVWhip
p23
aa(lp24
VBlade
p25
aVWhip
p26
aa(lp27
VBlaster
p28
aVCannon
p29
aVWhip
p30
aa(lp31
VBlaster
p32
aVCannon
p33
aVWhip
p34
aa(lp35
VBlaster
p36
aVCannon
p37
aVWhip
p38
aa(lp39
VBlaster
p40
aVCannon
p41
aVWhip
p42
aa(lp43
VBlaster
p44
aVCannon
p45
aVWhip
p46
aa(lp47
VBlaster
p48
aVCannon
p49
aVWhip
p50
aa(lp51
VBlaster
p52
aVCannon
p53
aVWhip
p54
aa(lp55
VBlaster
p56
aVCannon
p57
aVWhip
p58
aa(lp59
VBlaster
p60
aVCannon
p61
aVWhip
p62
aa(lp63
VBlaster
p64
aVCannon
p65
aVWhip
p66
aa(lp67
VBlaster
p68
aVCannon
p69
aVWhip
p70
aa(lp71
VBlaster
p72
aVCannon
p73
aVWhip
p74
aa(lp75
VBlaster
p76
aVCannon
p77
aVWhip
p78
aa(lp79
VBlaster
p80
aVCannon
p81
aVWhip
p82
aa(lp83
VBlaster
p84
aVCannon
p85
aVWhip
p86
aa(lp87
a(lp88
a(lp89
a(lp90
a(lp91
a(lp92
a(lp93
a(lp94
a(lp95
a(lp96
a(lp97
a(lp98
a(lp99
a(lp100
a(lp101
a(lp102
a(lp103
a(lp104
a(lp105
a(lp106
a(lp107
a(lp108
a(lp109
a(lp110
a(lp111
a(lp112
a(lp113
a(lp114
a(lp115
a(lp116
a(lp117
a(lp118
a(lp119
a(lp120
a(lp121
a(lp122
a(lp123
a(lp124
a(lp125
a(lp126
a(lp127
a(lp128
a(lp129
a(lp130
a(lp131
a(lp132
a(lp133
a(lp134
a(lp135
a(lp136
a(lp137
a(lp138
a(lp139
a(lp140
a(lp141
a(lp142
a(lp143
a(lp144
a(lp145
a(lp146
a(lp147
a(lp148
a(lp149
a(lp150
a(lp151
a(lp152
a(lp153
a(lp154
a(lp155
asS'Move'
p156
V7
p157
sS'Experience'
p158
V0
p159
sS'Fight'
p160
V0
p161
sS'Morale'
p162
V2
p163
sS'Skillset'
p164
(lp165
sS'Cost'
p166
I250
sS'Health'
p167
V8
p168
sS'Specialism'
p169
VEmpty
p170
ssS'Treasury'
p171
I162
sS'Captain'
p172
(dp173
g9
V2
p174
sg11
V12
p175
sg13
(lp176
(lp177
VBlaster
p178
aVCannon
p179
aVBlade
p180
aa(lp181
VBlaster
p182
aVCannon
p183
aVBlade
p184
aa(lp185
VBlaster
p186
aVCannon
p187
aVBlade
p188
aa(lp189
VBlaster
p190
aVCannon
p191
aVBlade
p192
aa(lp193
VBlaster
p194
aVCannon
p195
aVBlade
p196
aa(lp197
VBlaster
p198
aVCannon
p199
aVBlade
p200
aa(lp201
VBlaster
p202
aVCannon
p203
aVBlade
p204
aa(lp205
VBlaster
p206
aVCannon
p207
aVBlade
p208
aa(lp209
VBlaster
p210
aVCannon
p211
aVBlade
p212
aa(lp213
VBlaster
p214
aVCannon
p215
aVBlade
p216
aa(lp217
VBlaster
p218
aVCannon
p219
aVBlade
p220
aa(lp221
VBlaster
p222
aVCannon
p223
aVBlade
p224
aa(lp225
VBlaster
p226
aVCannon
p227
aVBlade
p228
aa(lp229
VBlaster
p230
aVCannon
p231
aVBlade
p232
aa(lp233
VBlaster
p234
aVCannon
p235
aVBlade
p236
aa(lp237
VBlaster
p238
aVCannon
p239
aVBlade
p240
aa(lp241
VBlaster
p242
aVCannon
p243
aVBlade
p244
aa(lp245
VBlaster
p246
aVCannon
p247
aVBlade
p248
aa(lp249
VBlaster
p250
aVCannon
p251
aVBlade
p252
aa(lp253
VCannon
p254
aVBlade
p255
aa(lp256
VCannon
p257
aVBlade
p258
aa(lp259
VCannon
p260
aVBlade
p261
aa(lp262
VCannon
p263
aVBlade
p264
aa(lp265
VCannon
p266
aVBlade
p267
aa(lp268
VCannon
p269
aVBlade
p270
aa(lp271
VCannon
p272
aVBlade
p273
aa(lp274
VCannon
p275
aVBlade
p276
aa(lp277
VCannon
p278
aVBlade
p279
aa(lp280
VCannon
p281
aVBlade
p282
aa(lp283
VCannon
p284
aVBlade
p285
aa(lp286
VCannon
p287
aVBlade
p288
aa(lp289
VCannon
p290
aVBlade
p291
aa(lp292
VCannon
p293
aVBlade
p294
aa(lp295
VCannon
p296
aVBlade
p297
aa(lp298
VCannon
p299
aVBlade
p300
aa(lp301
VCannon
p302
aVBlade
p303
aa(lp304
VCannon
p305
aVBlade
p306
aa(lp307
VCannon
p308
aVBlade
p309
aa(lp310
VCannon
p311
aVBlade
p312
aa(lp313
VCannon
p314
aVBlade
p315
aa(lp316
VCannon
p317
aVBlade
p318
aa(lp319
VCannon
p320
aVBlade
p321
aa(lp322
VCannon
p323
aVBlade
p324
aa(lp325
VCannon
p326
aVBlade
p327
aa(lp328
VCannon
p329
aVBlade
p330
aa(lp331
VCannon
p332
aVBlade
p333
aa(lp334
VCannon
p335
aVBlade
p336
aa(lp337
VCannon
p338
aVBlade
p339
aa(lp340
VCannon
p341
aVBlade
p342
aa(lp343
VCannon
p344
aVBlade
p345
aa(lp346
VCannon
p347
aVBlade
p348
aa(lp349
VCannon
p350
aVBlade
p351
aa(lp352
VCannon
p353
aVBlade
p354
aa(lp355
VCannon
p356
aVBlade
p357
aa(lp358
VCannon
p359
aVBlade
p360
aa(lp361
VCannon
p362
aVBlade
p363
aa(lp364
VCannon
p365
aVBlade
p366
aa(lp367
VCannon
p368
aVBlade
p369
aa(lp370
VCannon
p371
aVBlade
p372
aa(lp373
VCannon
p374
aVBlade
p375
aa(lp376
VCannon
p377
aVBlade
p378
aa(lp379
VCannon
p380
aVBlade
p381
aa(lp382
VCannon
p383
aVBlade
p384
aa(lp385
VCannon
p386
aVBlade
p387
aa(lp388
VCannon
p389
aVBlade
p390
aa(lp391
VCannon
p392
aVBlade
p393
aa(lp394
VCannon
p395
aVBlade
p396
aa(lp397
VCannon
p398
aVBlade
p399
aa(lp400
VCannon
p401
aVBlade
p402
aa(lp403
VCannon
p404
aVBlade
p405
aa(lp406
VCannon
p407
aVBlade
p408
aa(lp409
VCannon
p410
aVBlade
p411
aa(lp412
VCannon
p413
aVBlade
p414
aa(lp415
VCannon
p416
aVBlade
p417
aa(lp418
VCannon
p419
aVBlade
p420
aa(lp421
VCannon
p422
aVBlade
p423
aa(lp424
VCannon
p425
aVBlade
p426
aa(lp427
VCannon
p428
aVBlade
p429
aa(lp430
VCannon
p431
aVBlade
p432
aa(lp433
VCannon
p434
aVBlade
p435
aa(lp436
VCannon
p437
aVBlade
p438
aa(lp439
VCannon
p440
aVBlade
p441
aa(lp442
VCannon
p443
aVBlade
p444
aa(lp445
VCannon
p446
aVBlade
p447
aa(lp448
VCannon
p449
aVBlade
p450
aa(lp451
VCannon
p452
aVBlade
p453
aa(lp454
VCannon
p455
aVBlade
p456
aa(lp457
VCannon
p458
aVBlade
p459
aa(lp460
VCannon
p461
aVBlade
p462
aa(lp463
VCannon
p464
aVBlade
p465
aa(lp466
VCannon
p467
aVBlade
p468
aasg156
V5
p469
sg158
V0
p470
sg160
V2
p471
sg162
V4
p472
sg164
(lp473
VRepair
p474
aVRepair
p475
aVRepair
p476
aVRepair
p477
aVRepair
p478
aVRepair
p479
aVRepair
p480
aVRepair
p481
aVRepair
p482
aVRepair
p483
aVRepair
p484
aVRepair
p485
aVRepair
p486
aVRepair
p487
aVRepair
p488
aVRepair
p489
aVRepair
p490
aVRepair
p491
aVRepair
p492
aVAim
p493
aVAim
p494
aVAim
p495
aVAim
p496
aVAim
p497
aVAim
p498
aVAim
p499
aVAim
p500
aVAim
p501
aVAim
p502
aVAim
p503
aVAim
p504
aVAim
p505
aVAim
p506
aVAim
p507
aVAim
p508
aVAim
p509
aVAim
p510
aVAim
p511
aVAim
p512
aVAim
p513
aVAim
p514
aVAim
p515
aVAim
p516
aVAim
p517
aVAim
p518
aVAim
p519
aVAim
p520
aVAim
p521
aVAim
p522
aVAim
p523
aVAim
p524
aVAim
p525
aVAim
p526
aVAim
p527
aVAim
p528
aVAim
p529
aVAim
p530
aVAim
p531
aVAim
p532
aVAim
p533
aVAim
p534
aVAim
p535
aVAim
p536
aVAim
p537
aVAim
p538
aVAim
p539
aVAim
p540
aVAim
p541
aVAim
p542
aVAim
p543
aVAim
p544
aVAim
p545
aVAim
p546
aVAim
p547
aVAim
p548
aVAim
p549
aVAim
p550
aVAim
p551
aVAim
p552
aVAim
p553
aVBolster
p554
aVBolster
p555
aVBolster
p556
aVBolster
p557
aVBolster
p558
aVBolster
p559
aVBolster
p560
aVBolster
p561
aVBolster
p562
aVBolster
p563
aVBolster
p564
aVBolster
p565
aVBolster
p566
asg166
I0
sg167
V12
p567
sg169
VPsychology
p568
ssS'capweap'
p569
(lp570
g467
ag468
asS'Name'
p571
V412gp
p572
s.