(dp0
S'Treasury'
p1
I500
sS'Captain'
p2
(dp3
S'Shoot'
p4
I2
sS'Shield'
p5
I12
sS'Items'
p6
(lp7
(lp8
VBlaster
p9
aVCannon
p10
aVBlade
p11
aVNeedle Gun
p12
aa(lp13
VBlaster
p14
aVCannon
p15
aVBlade
p16
aVNeedle Gun
p17
aa(lp18
VBlaster
p19
aVCannon
p20
aVBlade
p21
aVNeedle Gun
p22
aa(lp23
VBlaster
p24
aVCannon
p25
aVBlade
p26
aVNeedle Gun
p27
aa(lp28
VBlaster
p29
aVCannon
p30
aVBlade
p31
aVNeedle Gun
p32
aa(lp33
VBlaster
p34
aVCannon
p35
aVBlade
p36
aVNeedle Gun
p37
aa(lp38
VBlaster
p39
aVCannon
p40
aVBlade
p41
aVNeedle Gun
p42
aa(lp43
VBlaster
p44
aVCannon
p45
aVBlade
p46
aVNeedle Gun
p47
aa(lp48
VBlaster
p49
aVCannon
p50
aVBlade
p51
aVNeedle Gun
p52
aa(lp53
VBlaster
p54
aVCannon
p55
aVBlade
p56
aVNeedle Gun
p57
aa(lp58
VBlaster
p59
aVCannon
p60
aVBlade
p61
aVNeedle Gun
p62
aa(lp63
VBlaster
p64
aVCannon
p65
aVBlade
p66
aVNeedle Gun
p67
aa(lp68
VBlaster
p69
aVCannon
p70
aVBlade
p71
aVNeedle Gun
p72
aa(lp73
VBlaster
p74
aVCannon
p75
aVBlade
p76
aVNeedle Gun
p77
aa(lp78
VBlaster
p79
aVCannon
p80
aVBlade
p81
aVNeedle Gun
p82
aa(lp83
VBlaster
p84
aVCannon
p85
aVBlade
p86
aVNeedle Gun
p87
aa(lp88
VBlaster
p89
aVCannon
p90
aVBlade
p91
aVNeedle Gun
p92
aa(lp93
VBlaster
p94
aVCannon
p95
aVBlade
p96
aVNeedle Gun
p97
aa(lp98
VBlaster
p99
aVCannon
p100
aVBlade
p101
aVNeedle Gun
p102
aa(lp103
VBlaster
p104
aVCannon
p105
aVBlade
p106
aVNeedle Gun
p107
aa(lp108
VBlaster
p109
aVCannon
p110
aVBlade
p111
aVNeedle Gun
p112
aa(lp113
VBlaster
p114
aVCannon
p115
aVBlade
p116
aVNeedle Gun
p117
aasS'Move'
p118
I5
sS'Experience'
p119
I0
sS'Fight'
p120
I2
sS'Morale'
p121
I4
sS'Skillset'
p122
(lp123
VBolster
p124
aVBolster
p125
aVBolster
p126
aVBolster
p127
aVBolster
p128
aVBolster
p129
aVBolster
p130
aVBolster
p131
aVBolster
p132
aVBolster
p133
aVBolster
p134
aVBolster
p135
aVBolster
p136
aVBolster
p137
aVBolster
p138
aVBolster
p139
aVBolster
p140
aVBolster
p141
aVBolster
p142
aVBolster
p143
aVBolster
p144
aVBolster
p145
aVAim
p146
aVSquad
p147
aVSquad
p148
aVBlock
p149
aVRepair
p150
aVSquad
p151
aVAim
p152
asS'Cost'
p153
I0
sS'Health'
p154
I12
sS'Specialism'
p155
VMarksman
p156
ssS'capweap'
p157
(lp158
sS'Name'
p159
Vasdasdasd
p160
sS'Troops'
p161
(lp162
s.