(dp0
S'Treasury'
p1
I315
sS'Captain'
p2
(dp3
S'Shoot'
p4
V2
p5
sS'Shield'
p6
V12
p7
sS'Items'
p8
(lp9
(lp10
VCannon
p11
aa(lp12
VCannon
p13
aasS'Move'
p14
V5
p15
sS'Experience'
p16
V0
p17
sS'Fight'
p18
V2
p19
sS'Morale'
p20
V4
p21
sS'Skillset'
p22
(lp23
VAmbush
p24
aVAmbush
p25
asS'Cost'
p26
I0
sS'Health'
p27
V12
p28
sS'Specialism'
p29
VTactics
p30
ssS'capweap'
p31
(lp32
g13
asS'Name'
p33
VBob
p34
sS'Troops'
p35
(lp36
VAugment Gorilla
p37
aVCombat Droid
p38
as.