(dp0
S'ensweap'
p1
(lp2
VBlade
p3
asS'Troops'
p4
(lp5
sS'Ensign'
p6
(dp7
S'Shoot'
p8
V-1
p9
sS'Shield'
p10
V10
p11
sS'Items'
p12
(lp13
(lp14
VNeedle Gun
p15
aa(lp16
VNeedle Gun
p17
aa(lp18
VNeedle Gun
p19
aa(lp20
VNeedle Gun
p21
aa(lp22
VNeedle Gun
p23
aa(lp24
VNeedle Gun
p25
aa(lp26
VNeedle Gun
p27
aa(lp28
VNeedle Gun
p29
aa(lp30
VNeedle Gun
p31
aa(lp32
VNeedle Gun
p33
aa(lp34
VNeedle Gun
p35
aa(lp36
VNeedle Gun
p37
aa(lp38
VNeedle Gun
p39
aa(lp40
VNeedle Gun
p41
aa(lp42
VNeedle Gun
p43
aa(lp44
VNeedle Gun
p45
aa(lp46
VNeedle Gun
p47
aa(lp48
VNeedle Gun
p49
aa(lp50
VNeedle Gun
p51
aa(lp52
VNeedle Gun
p53
aa(lp54
VNeedle Gun
p55
aa(lp56
VNeedle Gun
p57
aa(lp58
VBlade
p59
aa(lp60
VBlade
p61
aa(lp62
VBlade
p63
aa(lp64
VBlade
p65
aa(lp66
VBlade
p67
aa(lp68
VBlade
p69
aa(lp70
VBlade
p71
aa(lp72
VBlade
p73
aa(lp74
VBlade
p75
aa(lp76
VBlade
p77
aa(lp78
VBlade
p79
aa(lp80
VBlade
p81
aa(lp82
VBlade
p83
aa(lp84
VBlade
p85
aa(lp86
VBlade
p87
aa(lp88
VBlade
p89
aa(lp90
g3
aasS'Move'
p91
V7
p92
sS'Experience'
p93
V0
p94
sS'Fight'
p95
V0
p96
sS'Morale'
p97
V2
p98
sS'Skillset'
p99
(lp100
VSquad
p101
aVAim
p102
asS'Cost'
p103
I250
sS'Health'
p104
V8
p105
sS'Specialism'
p106
VEmpty
p107
ssS'Treasury'
p108
I270
sS'Captain'
p109
(dp110
g8
V2
p111
sg10
V12
p112
sg12
(lp113
(lp114
VBlaster
p115
aVCannon
p116
aVBlade
p117
aVNeedle Gun
p118
aa(lp119
VBlaster
p120
aVCannon
p121
aVBlade
p122
aVNeedle Gun
p123
aa(lp124
VBlaster
p125
aVCannon
p126
aVBlade
p127
aVNeedle Gun
p128
aa(lp129
VBlaster
p130
aVCannon
p131
aVBlade
p132
aVNeedle Gun
p133
aa(lp134
VBlaster
p135
aVCannon
p136
aVBlade
p137
aVNeedle Gun
p138
aa(lp139
VBlaster
p140
aVCannon
p141
aVBlade
p142
aVNeedle Gun
p143
aa(lp144
VBlaster
p145
aVCannon
p146
aVBlade
p147
aVNeedle Gun
p148
aa(lp149
VBlaster
p150
aVCannon
p151
aVBlade
p152
aVNeedle Gun
p153
aa(lp154
VBlaster
p155
aVCannon
p156
aVBlade
p157
aVNeedle Gun
p158
aa(lp159
VBlaster
p160
aVCannon
p161
aVBlade
p162
aVNeedle Gun
p163
aa(lp164
VBlaster
p165
aVCannon
p166
aVBlade
p167
aVNeedle Gun
p168
aa(lp169
VBlaster
p170
aVCannon
p171
aVBlade
p172
aVNeedle Gun
p173
aa(lp174
VBlaster
p175
aVCannon
p176
aVBlade
p177
aVNeedle Gun
p178
aa(lp179
VBlaster
p180
aVCannon
p181
aVBlade
p182
aVNeedle Gun
p183
aa(lp184
VBlaster
p185
aVCannon
p186
aVBlade
p187
aVNeedle Gun
p188
aa(lp189
VBlaster
p190
aVCannon
p191
aVBlade
p192
aVNeedle Gun
p193
aa(lp194
VBlaster
p195
aVCannon
p196
aVBlade
p197
aVNeedle Gun
p198
aa(lp199
VBlaster
p200
aVCannon
p201
aVBlade
p202
aVNeedle Gun
p203
aa(lp204
VBlaster
p205
aVCannon
p206
aVBlade
p207
aVNeedle Gun
p208
aa(lp209
VBlaster
p210
aVCannon
p211
aVBlade
p212
aVNeedle Gun
p213
aa(lp214
VBlaster
p215
aVCannon
p216
aVBlade
p217
aVNeedle Gun
p218
aa(lp219
VBlaster
p220
aVCannon
p221
aVBlade
p222
aVNeedle Gun
p223
aa(lp224
VCannon
p225
aVNeedle Gun
p226
aa(lp227
VCannon
p228
aVNeedle Gun
p229
aa(lp230
VCannon
p231
aVNeedle Gun
p232
aa(lp233
VCannon
p234
aVNeedle Gun
p235
aa(lp236
VCannon
p237
aVNeedle Gun
p238
aa(lp239
VCannon
p240
aVNeedle Gun
p241
aa(lp242
VCannon
p243
aVNeedle Gun
p244
aa(lp245
VCannon
p246
aVNeedle Gun
p247
aa(lp248
VCannon
p249
aVNeedle Gun
p250
aa(lp251
VCannon
p252
aVNeedle Gun
p253
aa(lp254
VCannon
p255
aVNeedle Gun
p256
aa(lp257
VCannon
p258
aVNeedle Gun
p259
aa(lp260
VCannon
p261
aVNeedle Gun
p262
aa(lp263
VCannon
p264
aVNeedle Gun
p265
aa(lp266
VCannon
p267
aVNeedle Gun
p268
aa(lp269
VCannon
p270
aVNeedle Gun
p271
aa(lp272
VCannon
p273
aVNeedle Gun
p274
aasg91
V5
p275
sg93
V0
p276
sg95
V2
p277
sg97
V4
p278
sg99
(lp279
VBolster
p280
aVBolster
p281
aVBolster
p282
aVBolster
p283
aVBolster
p284
aVBolster
p285
aVBolster
p286
aVBolster
p287
aVBolster
p288
aVBolster
p289
aVBolster
p290
aVBolster
p291
aVBolster
p292
aVBolster
p293
aVBolster
p294
aVBolster
p295
aVBolster
p296
aVBolster
p297
aVBolster
p298
aVBolster
p299
aVBolster
p300
aVBolster
p301
aVAim
p302
aVSquad
p303
aVSquad
p304
aVBlock
p305
aVRepair
p306
aVSquad
p307
aVAim
p308
aVRepair
p309
aVAim
p310
aVBolster
p311
aVAim
p312
aVSquad
p313
aVSquad
p314
aVSquad
p315
aVSquad
p316
aVSquad
p317
aVSquad
p318
aVSquad
p319
aVSquad
p320
aVSquad
p321
aVSquad
p322
aVSquad
p323
aVSquad
p324
aVSquad
p325
aVSquad
p326
aVSquad
p327
aVSquad
p328
aVSquad
p329
asg103
I0
sg104
V12
p330
sg106
VTactics
p331
ssS'capweap'
p332
(lp333
g273
ag274
asS'Name'
p334
Vbob
p335
s.