(dp0
S'Treasury'
p1
I480
sS'Captain'
p2
(dp3
S'Shoot'
p4
I2
sS'Shield'
p5
I12
sS'Items'
p6
(lp7
sS'Move'
p8
I5
sS'Experience'
p9
I0
sS'Fight'
p10
I2
sS'Morale'
p11
I4
sS'Skillset'
p12
(lp13
VAim
p14
asS'Cost'
p15
I0
sS'Health'
p16
I12
sS'Specialism'
p17
VMarksman
p18
ssS'capweap'
p19
(lp20
VBlaster
p21
aVCannon
p22
asS'Name'
p23
Vcccccccccccccc
p24
sS'Troops'
p25
(lp26
s.