(dp0
S'ensweap'
p1
(lp2
VCannon
p3
aVBlade
p4
aVNeedle Gun
p5
asS'Troops'
p6
(lp7
VCombat Droid
p8
aVLackey
p9
aVAugment Gorilla
p10
asS'Ensign'
p11
(dp12
S'Shoot'
p13
V-1
p14
sS'Shield'
p15
V10
p16
sS'Items'
p17
(lp18
(lp19
VCannon
p20
aa(lp21
VCannon
p22
aa(lp23
VCannon
p24
aa(lp25
VCannon
p26
aa(lp27
VCannon
p28
aa(lp29
VCannon
p30
aa(lp31
VCannon
p32
aa(lp33
VCannon
p34
aa(lp35
VCannon
p36
aa(lp37
VCannon
p38
aa(lp39
VCannon
p40
aa(lp41
VCannon
p42
aa(lp43
VCannon
p44
aa(lp45
VCannon
p46
aa(lp47
VCannon
p48
aa(lp49
VCannon
p50
aa(lp51
VCannon
p52
aa(lp53
VCannon
p54
aa(lp55
VCannon
p56
aa(lp57
VCannon
p58
aa(lp59
VCannon
p60
aa(lp61
VCannon
p62
aa(lp63
VCannon
p64
aa(lp65
VCannon
p66
aa(lp67
VCannon
p68
aa(lp69
VCannon
p70
aa(lp71
VCannon
p72
aa(lp73
VCannon
p74
aa(lp75
VCannon
p76
aa(lp77
VCannon
p78
aa(lp79
VCannon
p80
aa(lp81
VBlade
p82
aa(lp83
VCannon
p84
aa(lp85
VCannon
p86
aVBlade
p87
aa(lp88
g3
ag4
ag5
aasS'Move'
p89
V7
p90
sS'Experience'
p91
V0
p92
sS'Fight'
p93
V2
p94
sS'Morale'
p95
V2
p96
sS'Skillset'
p97
(lp98
sS'Cost'
p99
I250
sS'Health'
p100
V8
p101
sS'Specialism'
p102
VMarksman
p103
ssS'Treasury'
p104
I27
sS'Captain'
p105
(dp106
g13
V6
p107
sg15
V12
p108
sg17
(lp109
(lp110
VBlade
p111
aa(lp112
VBlade
p113
aa(lp114
VBlade
p115
aa(lp116
VBlade
p117
aa(lp118
VBlade
p119
aa(lp120
VBlade
p121
aa(lp122
VBlade
p123
aa(lp124
VBlade
p125
aa(lp126
VBlade
p127
aa(lp128
VBlade
p129
aa(lp130
VBlade
p131
aa(lp132
VBlade
p133
aa(lp134
VBlade
p135
aa(lp136
VBlade
p137
aa(lp138
VBlade
p139
aa(lp140
VBlade
p141
aa(lp142
VBlade
p143
aa(lp144
VBlade
p145
aa(lp146
VBlade
p147
aa(lp148
VBlade
p149
aa(lp150
VBlade
p151
aa(lp152
VBlade
p153
aa(lp154
VBlade
p155
aa(lp156
VBlade
p157
aa(lp158
VBlade
p159
aa(lp160
VBlade
p161
aa(lp162
VBlade
p163
aa(lp164
VBlade
p165
aa(lp166
VBlade
p167
aa(lp168
VBlade
p169
aa(lp170
VBlade
p171
aa(lp172
VBlade
p173
aa(lp174
VBlade
p175
aa(lp176
VBlade
p177
aa(lp178
VBlade
p179
aa(lp180
VBlade
p181
aa(lp182
VBlade
p183
aa(lp184
a(lp185
a(lp186
a(lp187
VBlade
p188
aa(lp189
VBlade
p190
aa(lp191
VBlade
p192
aasg89
V5
p193
sg91
V0
p194
sg93
V4
p195
sg95
V6
p196
sg97
(lp197
VBolster
p198
aVTerror
p199
aVBolster
p200
aVTerror
p201
aVBolster
p202
aVTerror
p203
aVBolster
p204
aVTerror
p205
aVBolster
p206
aVTerror
p207
aVBolster
p208
aVTerror
p209
aVBolster
p210
aVTerror
p211
aVBolster
p212
aVTerror
p213
aVBolster
p214
aVTerror
p215
aVBolster
p216
aVTerror
p217
aVBolster
p218
aVTerror
p219
aVBolster
p220
aVTerror
p221
aVBolster
p222
aVTerror
p223
aVBolster
p224
aVTerror
p225
aVBolster
p226
aVTerror
p227
aVBolster
p228
aVTerror
p229
aVBolster
p230
aVTerror
p231
aVBolster
p232
aVTerror
p233
aVBolster
p234
aVTerror
p235
aVBolster
p236
aVTerror
p237
aVBolster
p238
aVTerror
p239
aVBolster
p240
aVTerror
p241
aVBolster
p242
aVTerror
p243
aVBolster
p244
aVTerror
p245
aVBolster
p246
aVTerror
p247
aVBolster
p248
aVTerror
p249
aVBolster
p250
aVTerror
p251
aVBolster
p252
aVTerror
p253
aVBolster
p254
aVTerror
p255
aVBolster
p256
aVTerror
p257
aVBolster
p258
aVTerror
p259
aVBolster
p260
aVTerror
p261
aVBolster
p262
aVTerror
p263
aVBolster
p264
aVTerror
p265
aVBolster
p266
aVTerror
p267
aVBolster
p268
aVTerror
p269
aVBolster
p270
aVTerror
p271
aVRepair
p272
aVRepair
p273
aVRepair
p274
aVRepair
p275
aVBolster
p276
aVTerror
p277
aVBolster
p278
aVTerror
p279
aVBolster
p280
aVTerror
p281
asg99
I0
sg100
V12
p282
sg102
VPsychology
p283
ssS'capweap'
p284
(lp285
g192
asS'Name'
p286
VCthulu
p287
s.