(dp0
S'ensweap'
p1
(lp2
sS'Troops'
p3
(lp4
sS'Ensign'
p5
(dp6
S'Shoot'
p7
V-1
p8
sS'Shield'
p9
V10
p10
sS'Items'
p11
(lp12
(lp13
VCannon
p14
aa(lp15
VCannon
p16
aa(lp17
VCannon
p18
aa(lp19
VCannon
p20
aa(lp21
VCannon
p22
aa(lp23
VCannon
p24
aa(lp25
VCannon
p26
aa(lp27
VCannon
p28
aa(lp29
VCannon
p30
aa(lp31
VCannon
p32
aa(lp33
VCannon
p34
aa(lp35
VCannon
p36
aa(lp37
VCannon
p38
aa(lp39
VCannon
p40
aa(lp41
VCannon
p42
aa(lp43
VCannon
p44
aa(lp45
VCannon
p46
aa(lp47
VCannon
p48
aa(lp49
VCannon
p50
aa(lp51
VCannon
p52
aa(lp53
VCannon
p54
aa(lp55
VCannon
p56
aa(lp57
VCannon
p58
aa(lp59
VCannon
p60
aa(lp61
VCannon
p62
aa(lp63
VCannon
p64
aa(lp65
VCannon
p66
aa(lp67
VCannon
p68
aa(lp69
VCannon
p70
aa(lp71
VCannon
p72
aa(lp73
VCannon
p74
aa(lp75
VBlade
p76
aa(lp77
VCannon
p78
aa(lp79
VCannon
p80
aVBlade
p81
aa(lp82
VCannon
p83
aVBlade
p84
aVNeedle Gun
p85
aa(lp86
VBlaster
p87
aa(lp88
a(lp89
a(lp90
a(lp91
asS'Move'
p92
V7
p93
sS'Experience'
p94
V0
p95
sS'Fight'
p96
V0
p97
sS'Morale'
p98
V2
p99
sS'Skillset'
p100
(lp101
sS'Cost'
p102
I250
sS'Health'
p103
V8
p104
sS'Specialism'
p105
VPsychology
p106
ssS'Treasury'
p107
I5
sS'Captain'
p108
(dp109
g7
V2
p110
sg9
V12
p111
sg11
(lp112
(lp113
VBlade
p114
aa(lp115
VBlade
p116
aa(lp117
VBlade
p118
aa(lp119
VBlade
p120
aa(lp121
VBlade
p122
aa(lp123
VBlade
p124
aa(lp125
VBlade
p126
aa(lp127
VBlade
p128
aa(lp129
VBlade
p130
aa(lp131
VBlade
p132
aa(lp133
VBlade
p134
aa(lp135
VBlade
p136
aa(lp137
VBlade
p138
aa(lp139
VBlade
p140
aa(lp141
VBlade
p142
aa(lp143
VBlade
p144
aa(lp145
VBlade
p146
aa(lp147
VBlade
p148
aa(lp149
VBlade
p150
aa(lp151
VBlade
p152
aa(lp153
VBlade
p154
aa(lp155
VBlade
p156
aa(lp157
VBlade
p158
aa(lp159
VBlade
p160
aa(lp161
VBlade
p162
aa(lp163
VBlade
p164
aa(lp165
VBlade
p166
aa(lp167
VBlade
p168
aa(lp169
VBlade
p170
aa(lp171
VBlade
p172
aa(lp173
VBlade
p174
aa(lp175
VBlade
p176
aa(lp177
VBlade
p178
aa(lp179
VBlade
p180
aa(lp181
VBlade
p182
aa(lp183
VBlade
p184
aa(lp185
VBlade
p186
aa(lp187
a(lp188
a(lp189
a(lp190
VBlade
p191
aa(lp192
VBlade
p193
aa(lp194
VBlade
p195
aa(lp196
VBlaster
p197
aa(lp198
VBlaster
p199
aa(lp200
VBlaster
p201
aa(lp202
a(lp203
a(lp204
asg92
V5
p205
sg94
V0
p206
sg96
V2
p207
sg98
V4
p208
sg100
(lp209
VBolster
p210
aVTerror
p211
aVBolster
p212
aVTerror
p213
aVBolster
p214
aVTerror
p215
aVBolster
p216
aVTerror
p217
aVBolster
p218
aVTerror
p219
aVBolster
p220
aVTerror
p221
aVBolster
p222
aVTerror
p223
aVBolster
p224
aVTerror
p225
aVBolster
p226
aVTerror
p227
aVBolster
p228
aVTerror
p229
aVBolster
p230
aVTerror
p231
aVBolster
p232
aVTerror
p233
aVBolster
p234
aVTerror
p235
aVBolster
p236
aVTerror
p237
aVBolster
p238
aVTerror
p239
aVBolster
p240
aVTerror
p241
aVBolster
p242
aVTerror
p243
aVBolster
p244
aVTerror
p245
aVBolster
p246
aVTerror
p247
aVBolster
p248
aVTerror
p249
aVBolster
p250
aVTerror
p251
aVBolster
p252
aVTerror
p253
aVBolster
p254
aVTerror
p255
aVBolster
p256
aVTerror
p257
aVBolster
p258
aVTerror
p259
aVBolster
p260
aVTerror
p261
aVBolster
p262
aVTerror
p263
aVBolster
p264
aVTerror
p265
aVBolster
p266
aVTerror
p267
aVBolster
p268
aVTerror
p269
aVBolster
p270
aVTerror
p271
aVBolster
p272
aVTerror
p273
aVBolster
p274
aVTerror
p275
aVBolster
p276
aVTerror
p277
aVBolster
p278
aVTerror
p279
aVBolster
p280
aVTerror
p281
aVBolster
p282
aVTerror
p283
aVRepair
p284
aVRepair
p285
aVRepair
p286
aVRepair
p287
aVBolster
p288
aVTerror
p289
aVBolster
p290
aVTerror
p291
aVBolster
p292
aVTerror
p293
aVRepair
p294
aVRepair
p295
aVRepair
p296
aVRepair
p297
aVRepair
p298
aVRepair
p299
asg102
I0
sg103
V12
p300
sg105
VEngineering
p301
ssS'capweap'
p302
(lp303
sS'Name'
p304
Vhypo
p305
s.