(dp0
S'Captain'
p1
(dp2
S'Shoot'
p3
I2
sS'Shield'
p4
I12
sS'Items'
p5
(lp6
VEmpty
p7
aVCannon
p8
asS'Move'
p9
I5
sS'Experience'
p10
I0
sS'Fight'
p11
I2
sS'Morale'
p12
I4
sS'Skillset'
p13
(lp14
VBolster
p15
aVBolster
p16
asS'Cost'
p17
I0
sS'Health'
p18
I12
sS'Specialism'
p19
VPsychology
p20
ssS'Treasury'
p21
I500
sS'Name'
p22
Vpurchase_cannon
p23
sS'Troops'
p24
(lp25
s.