(dp0
S'Captain'
p1
(dp2
S'Shoot'
p3
V2
p4
sS'Shield'
p5
V12
p6
sS'Items'
p7
(lp8
VBlaster
p9
aVCannon
p10
aVCannon
p11
aVNeedle Gun
p12
aVCannon
p13
aVCannon
p14
aVCannon
p15
aVCannon
p16
aVCannon
p17
aVCannon
p18
aVCannon
p19
aVCannon
p20
aVCannon
p21
aVCannon
p22
aVCannon
p23
aVCannon
p24
aVCannon
p25
aVCannon
p26
aVNeedle Gun
p27
aVCannon
p28
aVCannon
p29
aVCannon
p30
aVCannon
p31
aVCannon
p32
aVCannon
p33
aVCannon
p34
aVCannon
p35
aVCannon
p36
aVCannon
p37
aVCannon
p38
aVCannon
p39
aVCannon
p40
aVCannon
p41
aVCannon
p42
aVCannon
p43
aVCannon
p44
aVCannon
p45
aVCannon
p46
aVCannon
p47
aVCannon
p48
aVCannon
p49
aVCannon
p50
aVCannon
p51
aVCannon
p52
aVCannon
p53
aVCannon
p54
aVCannon
p55
aVCannon
p56
aVCannon
p57
aVCannon
p58
aVCannon
p59
aVCannon
p60
aVCannon
p61
aVCannon
p62
aVCannon
p63
aVCannon
p64
aVCannon
p65
aVCannon
p66
aVCannon
p67
aVCannon
p68
aVCannon
p69
aVCannon
p70
asS'Move'
p71
V5
p72
sS'Experience'
p73
V0
p74
sS'Fight'
p75
V7
p76
sS'Morale'
p77
V-7
p78
sS'Skillset'
p79
(lp80
VRepair
p81
aVAim
p82
aVRepair
p83
aVRepair
p84
aVSabotage
p85
aVRepair
p86
aVSabotage
p87
aVRepair
p88
aVSabotage
p89
aVRepair
p90
aVSabotage
p91
aVRepair
p92
aVSabotage
p93
aVRepair
p94
aVSabotage
p95
aVRepair
p96
aVSabotage
p97
aVRepair
p98
aVSabotage
p99
aVRepair
p100
aVSabotage
p101
aVRepair
p102
aVSabotage
p103
aVRepair
p104
aVSabotage
p105
aVRepair
p106
aVSabotage
p107
aVRepair
p108
aVSabotage
p109
aVRepair
p110
aVSabotage
p111
aVRepair
p112
aVSabotage
p113
aVAim
p114
aVAim
p115
aVAim
p116
aVAim
p117
aVAim
p118
aVAim
p119
aVAim
p120
aVAim
p121
aVAim
p122
aVAim
p123
aVAim
p124
aVAim
p125
aVAim
p126
aVAim
p127
aVAim
p128
aVAim
p129
aVAim
p130
aVAim
p131
aVAim
p132
aVAim
p133
aVAim
p134
aVAim
p135
aVAim
p136
aVAim
p137
aVAim
p138
aVAim
p139
aVAim
p140
aVAim
p141
aVAim
p142
aVAim
p143
aVAim
p144
aVAim
p145
aVAim
p146
aVAim
p147
aVAim
p148
aVAim
p149
aVAim
p150
aVAim
p151
aVAim
p152
aVAim
p153
aVAim
p154
aVAim
p155
aVAim
p156
aVAim
p157
asS'Cost'
p158
I0
sS'Health'
p159
V14
p160
sS'Specialism'
p161
VMarksman
p162
ssS'Treasury'
p163
I-414
sS'Name'
p164
Vtiff
p165
sS'Troops'
p166
(lp167
s.